; Function Attrs: mustprogress uwtable
define noundef i32 @_ZN15colvarproxy_smp15smp_biases_loopEv(ptr noundef nonnull align 8 dereferenceable(24) %0) unnamed_addr #2 align 2 {
  %2 = alloca ptr, align 8
  call void @llvm.lifetime.start.p0(i64 8, ptr nonnull %2) #24
  %3 = tail call noundef ptr @_ZN12colvarmodule4mainEv()
  store ptr %3, ptr %2, align 8, !tbaa !29
  call void (ptr, i32, ptr, ...) @__kmpc_fork_call(ptr nonnull @2, i32 2, ptr nonnull @_ZN15colvarproxy_smp15smp_biases_loopEv.omp_outlined, ptr nonnull %2, ptr nonnull %0)
  %4 = load i32, ptr @_ZN12colvarmodule9errorCodeE, align 4, !tbaa !33
  call void @llvm.lifetime.end.p0(i64 8, ptr nonnull %2) #24
  ret i32 %4
}